cnumpy.core.multiarray
_reconstruct
p0
(cnumpy
ndarray
p1
(I0
tp2
S'b'
p3
tp4
Rp5
(I1
(I25
tp6
cnumpy
dtype
p7
(S'O8'
p8
I0
I1
tp9
Rp10
(I3
S'|'
p11
NNNI-1
I-1
I63
tp12
bI00
(lp13
S'poi'
p14
aS'bonus'
p15
aS'deferral_payments'
p16
aS'deferred_income'
p17
aS'director_fees'
p18
aS'exercised_stock_options'
p19
aS'expenses'
p20
aS'from_messages'
p21
aS'from_poi_to_this_person'
p22
aS'from_this_person_to_poi'
p23
aS'loan_advances'
p24
aS'long_term_incentive'
p25
aS'other'
p26
aS'restricted_stock'
p27
aS'restricted_stock_deferred'
p28
aS'salary'
p29
aS'shared_receipt_with_poi'
p30
aS'to_messages'
p31
aS'total_payments'
p32
aS'total_stock_value'
p33
aS'benefits'
p34
aS'salary_to_bonus'
p35
aS'from_poi_percentage'
p36
aS'to_poi_percentage'
p37
aS'restricted_stock_ratio'
p38
atp39
b.